; Function Attrs: nounwind uwtable
define ptr @cl_get_x509_from_mem(ptr noundef %0, i32 noundef %1) local_unnamed_addr #1 {
  %3 = tail call ptr @BIO_new_mem_buf(ptr noundef %0, i32 noundef %1) #12
  %.not = icmp eq ptr %3, null
  br i1 %.not, label %7, label %4

4:                                                ; preds = %2
  %5 = tail call ptr @PEM_read_bio_X509(ptr noundef nonnull %3, ptr noundef null, ptr noundef null, ptr noundef null) #12
  %6 = tail call i32 @BIO_free(ptr noundef nonnull %3) #12
  br label %7

7:                                                ; preds = %2, %4
  %.0 = phi ptr [ %5, %4 ], [ null, %2 ]
  ret ptr %.0
}